; Function Attrs: nounwind memory(readwrite, argmem: read) uwtable
define internal fastcc range(i32 0, 2) i32 @arkode_butcher_order5g(ptr noundef readonly captures(address_is_null) %0, ptr noundef readonly captures(address_is_null) %1, ptr noundef readonly captures(address_is_null) %2, ptr noundef readonly captures(address_is_null) %3, ptr noundef readonly captures(address_is_null) %4, i32 noundef %5) unnamed_addr #10 {
  %7 = sext i32 %5 to i64
  %8 = tail call noalias ptr @calloc(i64 noundef %7, i64 noundef 8) #16
  %9 = tail call noalias ptr @calloc(i64 noundef %7, i64 noundef 8) #16
  %10 = icmp eq ptr %3, null
  %11 = icmp eq ptr %4, null
  %or.cond.i = or i1 %10, %11
  %12 = icmp eq ptr %8, null
  %or.cond3.i = or i1 %or.cond.i, %12
  %13 = icmp slt i32 %5, 1
  %or.cond5.i = or i1 %13, %or.cond3.i
  br i1 %or.cond5.i, label %arkode_butcher_mv.exit, label %.preheader.us.preheader.i

.preheader.us.preheader.i:                        ; preds = %6
  %14 = zext nneg i32 %5 to i64
  %15 = shl nuw nsw i64 %14, 3
  br label %.preheader.us.i

.preheader.us.i:                                  ; preds = %._crit_edge.us.i, %.preheader.us.preheader.i
  %indvars.iv40.i = phi i64 [ 0, %.preheader.us.preheader.i ], [ %indvars.iv.next41.i, %._crit_edge.us.i ]
  %16 = getelementptr inbounds nuw ptr, ptr %3, i64 %indvars.iv40.i
  %17 = load ptr, ptr %16, align 8, !tbaa !12
  %18 = getelementptr inbounds nuw double, ptr %8, i64 %indvars.iv40.i
  %.promoted.us.i = load double, ptr %18, align 8, !tbaa !18
  br label %19

19:                                               ; preds = %19, %.preheader.us.i
  %indvars.iv.i = phi i64 [ 0, %.preheader.us.i ], [ %indvars.iv.next.i, %19 ]
  %20 = phi double [ %.promoted.us.i, %.preheader.us.i ], [ %25, %19 ]
  %21 = getelementptr inbounds nuw double, ptr %17, i64 %indvars.iv.i
  %22 = load double, ptr %21, align 8, !tbaa !18
  %23 = getelementptr inbounds nuw double, ptr %4, i64 %indvars.iv.i
  %24 = load double, ptr %23, align 8, !tbaa !18
  %25 = tail call double @llvm.fmuladd.f64(double %22, double %24, double %20)
  %indvars.iv.next.i = add nuw nsw i64 %indvars.iv.i, 1
  %exitcond.not.i = icmp eq i64 %indvars.iv.next.i, %14
  br i1 %exitcond.not.i, label %._crit_edge.us.i, label %19

._crit_edge.us.i:                                 ; preds = %19
  store double %25, ptr %18, align 8, !tbaa !18
  %indvars.iv.next41.i = add nuw nsw i64 %indvars.iv40.i, 1
  %exitcond44.not.i = icmp eq i64 %indvars.iv.next41.i, %14
  br i1 %exitcond44.not.i, label %26, label %.preheader.us.i

arkode_butcher_mv.exit:                           ; preds = %6
  tail call void @free(ptr noundef %8) #17
  tail call void @free(ptr noundef %9) #17
  br label %arkode_butcher_dot.exit

26:                                               ; preds = %._crit_edge.us.i
  %27 = icmp eq ptr %2, null
  %28 = icmp eq ptr %9, null
  %or.cond3.i29 = or i1 %27, %28
  br i1 %or.cond3.i29, label %arkode_butcher_vv.exit, label %.preheader.i

.preheader.i:                                     ; preds = %26, %.preheader.i
  %indvars.iv.i31 = phi i64 [ %indvars.iv.next.i32, %.preheader.i ], [ 0, %26 ]
  %29 = getelementptr inbounds nuw double, ptr %2, i64 %indvars.iv.i31
  %30 = load double, ptr %29, align 8, !tbaa !18
  %31 = getelementptr inbounds nuw double, ptr %8, i64 %indvars.iv.i31
  %32 = load double, ptr %31, align 8, !tbaa !18
  %33 = fmul double %30, %32
  %34 = getelementptr inbounds nuw double, ptr %9, i64 %indvars.iv.i31
  store double %33, ptr %34, align 8, !tbaa !18
  %indvars.iv.next.i32 = add nuw nsw i64 %indvars.iv.i31, 1
  %exitcond.not.i33 = icmp eq i64 %indvars.iv.next.i32, %14
  br i1 %exitcond.not.i33, label %35, label %.preheader.i

arkode_butcher_vv.exit:                           ; preds = %26
  tail call void @free(ptr noundef nonnull %8) #17
  tail call void @free(ptr noundef %9) #17
  br label %arkode_butcher_dot.exit

35:                                               ; preds = %.preheader.i
  %36 = icmp eq ptr %1, null
  br i1 %36, label %arkode_butcher_mv.exit48, label %.preheader.us.preheader.i37

.preheader.us.preheader.i37:                      ; preds = %35
  tail call void @llvm.memset.p0.i64(ptr nonnull align 8 %8, i8 0, i64 %15, i1 false), !tbaa !18
  br label %.preheader.us.i38

.preheader.us.i38:                                ; preds = %._crit_edge.us.i44, %.preheader.us.preheader.i37
  %indvars.iv40.i39 = phi i64 [ 0, %.preheader.us.preheader.i37 ], [ %indvars.iv.next41.i45, %._crit_edge.us.i44 ]
  %37 = getelementptr inbounds nuw ptr, ptr %1, i64 %indvars.iv40.i39
  %38 = load ptr, ptr %37, align 8, !tbaa !12
  %39 = getelementptr inbounds nuw double, ptr %8, i64 %indvars.iv40.i39
  %.promoted.us.i40 = load double, ptr %39, align 8, !tbaa !18
  br label %40

40:                                               ; preds = %40, %.preheader.us.i38
  %indvars.iv.i41 = phi i64 [ 0, %.preheader.us.i38 ], [ %indvars.iv.next.i42, %40 ]
  %41 = phi double [ %.promoted.us.i40, %.preheader.us.i38 ], [ %46, %40 ]
  %42 = getelementptr inbounds nuw double, ptr %38, i64 %indvars.iv.i41
  %43 = load double, ptr %42, align 8, !tbaa !18
  %44 = getelementptr inbounds nuw double, ptr %9, i64 %indvars.iv.i41
  %45 = load double, ptr %44, align 8, !tbaa !18
  %46 = tail call double @llvm.fmuladd.f64(double %43, double %45, double %41)
  %indvars.iv.next.i42 = add nuw nsw i64 %indvars.iv.i41, 1
  %exitcond.not.i43 = icmp eq i64 %indvars.iv.next.i42, %14
  br i1 %exitcond.not.i43, label %._crit_edge.us.i44, label %40

._crit_edge.us.i44:                               ; preds = %40
  store double %46, ptr %39, align 8, !tbaa !18
  %indvars.iv.next41.i45 = add nuw nsw i64 %indvars.iv40.i39, 1
  %exitcond44.not.i46 = icmp eq i64 %indvars.iv.next41.i45, %14
  br i1 %exitcond44.not.i46, label %47, label %.preheader.us.i38

arkode_butcher_mv.exit48:                         ; preds = %35
  tail call void @free(ptr noundef nonnull %8) #17
  tail call void @free(ptr noundef nonnull %9) #17
  br label %arkode_butcher_dot.exit

47:                                               ; preds = %._crit_edge.us.i44
  %48 = icmp eq ptr %0, null
  br i1 %48, label %arkode_butcher_dot.exit, label %.preheader

.preheader:                                       ; preds = %47, %.preheader
  %indvars.iv.i52 = phi i64 [ %indvars.iv.next.i53, %.preheader ], [ 0, %47 ]
  %49 = phi double [ %54, %.preheader ], [ 0.000000e+00, %47 ]
  %50 = getelementptr inbounds nuw double, ptr %0, i64 %indvars.iv.i52
  %51 = load double, ptr %50, align 8, !tbaa !18
  %52 = getelementptr inbounds nuw double, ptr %8, i64 %indvars.iv.i52
  %53 = load double, ptr %52, align 8, !tbaa !18
  %54 = tail call double @llvm.fmuladd.f64(double %51, double %53, double %49)
  %indvars.iv.next.i53 = add nuw nsw i64 %indvars.iv.i52, 1
  %exitcond.not.i54 = icmp eq i64 %indvars.iv.next.i53, %14
  br i1 %exitcond.not.i54, label %55, label %.preheader

55:                                               ; preds = %.preheader
  tail call void @free(ptr noundef nonnull %8) #17
  tail call void @free(ptr noundef %9) #17
  %56 = fadd double %54, -2.500000e-02
  %57 = tail call double @llvm.fabs.f64(double %56)
  %58 = fcmp ule double %57, 0x3E50000000000000
  %59 = zext i1 %58 to i32
  br label %arkode_butcher_dot.exit

arkode_butcher_dot.exit:                          ; preds = %47, %55, %arkode_butcher_mv.exit48, %arkode_butcher_vv.exit, %arkode_butcher_mv.exit
  %.0 = phi i32 [ 0, %arkode_butcher_mv.exit ], [ 0, %arkode_butcher_vv.exit ], [ 0, %arkode_butcher_mv.exit48 ], [ %59, %55 ], [ 0, %47 ]
  ret i32 %.0
}